target datalayout = "e-m:e-p270:32:32-p271:32:32-p272:64:64-i64:64-i128:128-f80:128-n8:16:32:64-S128"
target triple = "x86_64-pc-linux-gnu"

%struct.AVRational = type { i32, i32 }
%struct.AVFormatContext = type { ptr, ptr, ptr, ptr, ptr, i32, i32, ptr, i32, ptr, i32, ptr, ptr, i64, i64, i64, i32, i32, i32, i64, i64, ptr, i32, i32, ptr, i32, i32, i32, i32, ptr, i64, i32, i32, %struct.AVIOInterruptCB, i32, i32, i32, i32, i64, i32, i32, i32, i32, i32, i32, i32, i32, i32, i32, i32, i32, i64, i32, i32, i32, i32, i32, ptr, ptr, ptr, ptr, i32, ptr, ptr, ptr, ptr, i32, ptr, ptr, i64, ptr, ptr, ptr, i64 }
%struct.AVIOInterruptCB = type { ptr, ptr }
%struct.GXFContext = type { ptr, i32, i16, i16, i64, i32, i32, i32, i32, i16, i16, %struct.AVRational, i32, %struct.GXFStreamContext, ptr, i32, ptr, i32, i32, %struct.GXFTimecode }
%struct.GXFStreamContext = type { i64, i32, i32, i32, i16, i16, i32, i32, i32, i32, i32, i32, i32, i32, i32, i32 }
%struct.GXFTimecode = type { i32, i32, i32, i32, i32, i32 }

; Function Attrs: nounwind uwtable
define internal void @gxf_write_packet_header(ptr noundef %0, i32 noundef %1) #0 {
  %3 = alloca ptr, align 8
  %4 = alloca i32, align 4
  store ptr %0, ptr %3, align 8, !tbaa !26
  store i32 %1, ptr %4, align 4, !tbaa !32
  %5 = load ptr, ptr %3, align 8, !tbaa !26
  call void @avio_wb32(ptr noundef %5, i32 noundef 0)
  %6 = load ptr, ptr %3, align 8, !tbaa !26
  call void @avio_w8(ptr noundef %6, i32 noundef 1)
  %7 = load ptr, ptr %3, align 8, !tbaa !26
  %8 = load i32, ptr %4, align 4, !tbaa !32
  call void @avio_w8(ptr noundef %7, i32 noundef %8)
  %9 = load ptr, ptr %3, align 8, !tbaa !26
  call void @avio_wb32(ptr noundef %9, i32 noundef 0)
  %10 = load ptr, ptr %3, align 8, !tbaa !26
  call void @avio_wb32(ptr noundef %10, i32 noundef 0)
  %11 = load ptr, ptr %3, align 8, !tbaa !26
  call void @avio_w8(ptr noundef %11, i32 noundef 225)
  %12 = load ptr, ptr %3, align 8, !tbaa !26
  call void @avio_w8(ptr noundef %12, i32 noundef 226)
  ret void
}

; Function Attrs: alwaysinline nounwind uwtable
define internal i64 @avio_tell(ptr noundef %0) #6 {
  %2 = alloca ptr, align 8
  store ptr %0, ptr %2, align 8, !tbaa !26
  %3 = load ptr, ptr %2, align 8, !tbaa !26
  %4 = call i64 @avio_seek(ptr noundef %3, i64 noundef 0, i32 noundef 1)
  ret i64 %4
}

; Function Attrs: nounwind uwtable
define internal i32 @gxf_write_flt_packet(ptr noundef %0) #0 {
  %2 = alloca ptr, align 8
  %3 = alloca ptr, align 8
  %4 = alloca ptr, align 8
  %5 = alloca i64, align 8
  %6 = alloca i32, align 4
  %7 = alloca i32, align 4
  %8 = alloca i32, align 4
  store ptr %0, ptr %2, align 8, !tbaa !4
  call void @llvm.lifetime.start.p0(i64 8, ptr %3) #10
  %9 = load ptr, ptr %2, align 8, !tbaa !4
  %10 = getelementptr inbounds nuw %struct.AVFormatContext, ptr %9, i32 0, i32 3
  %11 = load ptr, ptr %10, align 8, !tbaa !27
  store ptr %11, ptr %3, align 8, !tbaa !28
  call void @llvm.lifetime.start.p0(i64 8, ptr %4) #10
  %12 = load ptr, ptr %2, align 8, !tbaa !4
  %13 = getelementptr inbounds nuw %struct.AVFormatContext, ptr %12, i32 0, i32 4
  %14 = load ptr, ptr %13, align 8, !tbaa !9
  store ptr %14, ptr %4, align 8, !tbaa !26
  call void @llvm.lifetime.start.p0(i64 8, ptr %5) #10
  %15 = load ptr, ptr %4, align 8, !tbaa !26
  %16 = call i64 @avio_tell(ptr noundef %15)
  store i64 %16, ptr %5, align 8, !tbaa !94
  call void @llvm.lifetime.start.p0(i64 4, ptr %6) #10
  %17 = load ptr, ptr %3, align 8, !tbaa !28
  %18 = getelementptr inbounds nuw %struct.GXFContext, ptr %17, i32 0, i32 1
  %19 = load i32, ptr %18, align 8, !tbaa !98
  %20 = add i32 %19, 1
  %21 = udiv i32 %20, 1000
  %22 = add i32 %21, 1
  store i32 %22, ptr %6, align 4, !tbaa !32
  call void @llvm.lifetime.start.p0(i64 4, ptr %7) #10
  %23 = load ptr, ptr %3, align 8, !tbaa !28
  %24 = getelementptr inbounds nuw %struct.GXFContext, ptr %23, i32 0, i32 1
  %25 = load i32, ptr %24, align 8, !tbaa !98
  %26 = load i32, ptr %6, align 4, !tbaa !32
  %27 = udiv i32 %25, %26
  store i32 %27, ptr %7, align 4, !tbaa !32
  call void @llvm.lifetime.start.p0(i64 4, ptr %8) #10
  store i32 0, ptr %8, align 4, !tbaa !32
  %28 = load ptr, ptr %4, align 8, !tbaa !26
  call void @gxf_write_packet_header(ptr noundef %28, i32 noundef 252)
  %29 = load ptr, ptr %4, align 8, !tbaa !26
  %30 = load i32, ptr %6, align 4, !tbaa !32
  call void @avio_wl32(ptr noundef %29, i32 noundef %30)
  %31 = load ptr, ptr %4, align 8, !tbaa !26
  %32 = load i32, ptr %7, align 4, !tbaa !32
  call void @avio_wl32(ptr noundef %31, i32 noundef %32)
  %33 = load ptr, ptr %3, align 8, !tbaa !28
  %34 = getelementptr inbounds nuw %struct.GXFContext, ptr %33, i32 0, i32 14
  %35 = load ptr, ptr %34, align 8, !tbaa !99
  %36 = icmp ne ptr %35, null
  br i1 %36, label %37, label %58

37:                                               ; preds = %1
  store i32 0, ptr %8, align 4, !tbaa !32
  br label %38

38:                                               ; preds = %54, %37
  %39 = load i32, ptr %8, align 4, !tbaa !32
  %40 = load i32, ptr %7, align 4, !tbaa !32
  %41 = icmp slt i32 %39, %40
  br i1 %41, label %42, label %57

42:                                               ; preds = %38
  %43 = load ptr, ptr %4, align 8, !tbaa !26
  %44 = load ptr, ptr %3, align 8, !tbaa !28
  %45 = getelementptr inbounds nuw %struct.GXFContext, ptr %44, i32 0, i32 14
  %46 = load ptr, ptr %45, align 8, !tbaa !99
  %47 = load i32, ptr %8, align 4, !tbaa !32
  %48 = load i32, ptr %6, align 4, !tbaa !32
  %49 = mul nsw i32 %47, %48
  %50 = ashr i32 %49, 1
  %51 = sext i32 %50 to i64
  %52 = getelementptr inbounds i32, ptr %46, i64 %51
  %53 = load i32, ptr %52, align 4, !tbaa !32
  call void @avio_wl32(ptr noundef %43, i32 noundef %53)
  br label %54

54:                                               ; preds = %42
  %55 = load i32, ptr %8, align 4, !tbaa !32
  %56 = add nsw i32 %55, 1
  store i32 %56, ptr %8, align 4, !tbaa !32
  br label %38, !llvm.loop !116

57:                                               ; preds = %38
  br label %58

58:                                               ; preds = %57, %1
  %59 = load ptr, ptr %4, align 8, !tbaa !26
  %60 = load i32, ptr %8, align 4, !tbaa !32
  %61 = sub nsw i32 1000, %60
  %62 = mul nsw i32 %61, 4
  %63 = sext i32 %62 to i64
  call void @ffio_fill(ptr noundef %59, i32 noundef 0, i64 noundef %63)
  %64 = load ptr, ptr %4, align 8, !tbaa !26
  %65 = load i64, ptr %5, align 8, !tbaa !94
  %66 = call i64 @update_packet_size(ptr noundef %64, i64 noundef %65)
  %67 = trunc i64 %66 to i32
  call void @llvm.lifetime.end.p0(i64 4, ptr %8) #10
  call void @llvm.lifetime.end.p0(i64 4, ptr %7) #10
  call void @llvm.lifetime.end.p0(i64 4, ptr %6) #10
  call void @llvm.lifetime.end.p0(i64 8, ptr %5) #10
  call void @llvm.lifetime.end.p0(i64 8, ptr %4) #10
  call void @llvm.lifetime.end.p0(i64 8, ptr %3) #10
  ret i32 %67
}