; Function Attrs: nounwind uwtable
define internal fastcc void @gxf_write_flt_packet(ptr readonly captures(none) %.24.val, ptr %.32.val) unnamed_addr #0 {
  %1 = tail call i64 @avio_seek(ptr noundef %.32.val, i64 noundef 0, i32 noundef 1) #10
  %2 = getelementptr inbounds nuw i8, ptr %.24.val, i64 8
  %3 = load i32, ptr %2, align 8, !tbaa !88
  %4 = add i32 %3, 1
  %5 = udiv i32 %4, 1000
  %6 = add nuw nsw i32 %5, 1
  %7 = udiv i32 %3, %6
  tail call void @avio_wb32(ptr noundef %.32.val, i32 noundef 0) #10
  tail call void @avio_w8(ptr noundef %.32.val, i32 noundef 1) #10
  tail call void @avio_w8(ptr noundef %.32.val, i32 noundef 252) #10
  tail call void @avio_wb32(ptr noundef %.32.val, i32 noundef 0) #10
  tail call void @avio_wb32(ptr noundef %.32.val, i32 noundef 0) #10
  tail call void @avio_w8(ptr noundef %.32.val, i32 noundef 225) #10
  tail call void @avio_w8(ptr noundef %.32.val, i32 noundef 226) #10
  tail call void @avio_wl32(ptr noundef %.32.val, i32 noundef %6) #10
  tail call void @avio_wl32(ptr noundef %.32.val, i32 noundef %7) #10
  %8 = getelementptr inbounds nuw i8, ptr %.24.val, i64 120
  %9 = load ptr, ptr %8, align 8, !tbaa !96
  %.not = icmp ne ptr %9, null
  %10 = icmp sgt i32 %7, 0
  %or.cond = and i1 %.not, %10
  br i1 %or.cond, label %.lr.ph, label %.loopexit

.lr.ph:                                           ; preds = %0, %.lr.ph
  %.11 = phi i32 [ %17, %.lr.ph ], [ 0, %0 ]
  %11 = load ptr, ptr %8, align 8, !tbaa !96
  %12 = mul nuw nsw i32 %.11, %6
  %13 = lshr i32 %12, 1
  %14 = zext nneg i32 %13 to i64
  %15 = getelementptr inbounds nuw i32, ptr %11, i64 %14
  %16 = load i32, ptr %15, align 4, !tbaa !62
  tail call void @avio_wl32(ptr noundef %.32.val, i32 noundef %16) #10
  %17 = add nuw nsw i32 %.11, 1
  %exitcond.not = icmp eq i32 %17, %7
  br i1 %exitcond.not, label %.loopexit.loopexit, label %.lr.ph, !llvm.loop !105

.loopexit.loopexit:                               ; preds = %.lr.ph
  %18 = shl i32 %7, 2
  %19 = sub i32 4000, %18
  %20 = sext i32 %19 to i64
  br label %.loopexit

.loopexit:                                        ; preds = %.loopexit.loopexit, %0
  %.0 = phi i64 [ 4000, %0 ], [ %20, %.loopexit.loopexit ]
  tail call void @ffio_fill(ptr noundef %.32.val, i32 noundef 0, i64 noundef %.0) #10
  %21 = tail call fastcc i64 @update_packet_size(ptr noundef %.32.val, i64 noundef %1)
  ret void
}